; ModuleID = '27/230.c'
source_filename = "27/230.c"
target datalayout = "e-m:e-p270:32:32-p271:32:32-p272:64:64-i64:64-f80:128-n8:16:32:64-S128"
target triple = "x86_64-pc-linux-gnu"

@.str = private unnamed_addr constant [3 x i8] c"%d\00", align 1
@.str.1 = private unnamed_addr constant [12 x i8] c"%lf %lf %lf\00", align 1
@.str.2 = private unnamed_addr constant [13 x i8] c"x1=x2=%.5lf\0A\00", align 1
@.str.3 = private unnamed_addr constant [33 x i8] c"x1=%.5lf+%.5lfi;x2=%.5lf-%.5lfi\0A\00", align 1
@.str.4 = private unnamed_addr constant [19 x i8] c"x1=%.5lf;x2=%.5lf\0A\00", align 1

; Function Attrs: noinline nounwind uwtable
define dso_local i32 @main() #0 {
  %1 = alloca i32, align 4
  %2 = alloca i32, align 4
  %3 = alloca i32, align 4
  %4 = alloca [100 x double], align 16
  %5 = alloca [100 x double], align 16
  %6 = alloca [100 x double], align 16
  %7 = alloca [100 x double], align 16
  %8 = alloca [100 x double], align 16
  %9 = alloca [100 x double], align 16
  %10 = alloca [100 x double], align 16
  %11 = alloca [100 x double], align 16
  store i32 0, i32* %1, align 4
  %12 = call i32 (i8*, ...) @__isoc99_scanf(i8* getelementptr inbounds ([3 x i8], [3 x i8]* @.str, i64 0, i64 0), i32* %2)
  store i32 0, i32* %3, align 4
  br label %13

13:                                               ; preds = %28, %0
  %14 = load i32, i32* %3, align 4
  %15 = load i32, i32* %2, align 4
  %16 = icmp slt i32 %14, %15
  br i1 %16, label %17, label %31

17:                                               ; preds = %13
  %18 = load i32, i32* %3, align 4
  %19 = sext i32 %18 to i64
  %20 = getelementptr inbounds [100 x double], [100 x double]* %4, i64 0, i64 %19
  %21 = load i32, i32* %3, align 4
  %22 = sext i32 %21 to i64
  %23 = getelementptr inbounds [100 x double], [100 x double]* %5, i64 0, i64 %22
  %24 = load i32, i32* %3, align 4
  %25 = sext i32 %24 to i64
  %26 = getelementptr inbounds [100 x double], [100 x double]* %6, i64 0, i64 %25
  %27 = call i32 (i8*, ...) @__isoc99_scanf(i8* getelementptr inbounds ([12 x i8], [12 x i8]* @.str.1, i64 0, i64 0), double* %20, double* %23, double* %26)
  br label %28

28:                                               ; preds = %17
  %29 = load i32, i32* %3, align 4
  %30 = add nsw i32 %29, 1
  store i32 %30, i32* %3, align 4
  br label %13

31:                                               ; preds = %13
  store i32 0, i32* %3, align 4
  br label %32

32:                                               ; preds = %200, %31
  %33 = load i32, i32* %3, align 4
  %34 = load i32, i32* %2, align 4
  %35 = icmp slt i32 %33, %34
  br i1 %35, label %36, label %203

36:                                               ; preds = %32
  %37 = load i32, i32* %3, align 4
  %38 = sext i32 %37 to i64
  %39 = getelementptr inbounds [100 x double], [100 x double]* %5, i64 0, i64 %38
  %40 = load double, double* %39, align 8
  %41 = load i32, i32* %3, align 4
  %42 = sext i32 %41 to i64
  %43 = getelementptr inbounds [100 x double], [100 x double]* %5, i64 0, i64 %42
  %44 = load double, double* %43, align 8
  %45 = fmul double %40, %44
  %46 = load i32, i32* %3, align 4
  %47 = sext i32 %46 to i64
  %48 = getelementptr inbounds [100 x double], [100 x double]* %4, i64 0, i64 %47
  %49 = load double, double* %48, align 8
  %50 = fmul double 4.000000e+00, %49
  %51 = load i32, i32* %3, align 4
  %52 = sext i32 %51 to i64
  %53 = getelementptr inbounds [100 x double], [100 x double]* %6, i64 0, i64 %52
  %54 = load double, double* %53, align 8
  %55 = fmul double %50, %54
  %56 = fsub double %45, %55
  %57 = load i32, i32* %3, align 4
  %58 = sext i32 %57 to i64
  %59 = getelementptr inbounds [100 x double], [100 x double]* %11, i64 0, i64 %58
  store double %56, double* %59, align 8
  %60 = load i32, i32* %3, align 4
  %61 = sext i32 %60 to i64
  %62 = getelementptr inbounds [100 x double], [100 x double]* %11, i64 0, i64 %61
  %63 = load double, double* %62, align 8
  %64 = fcmp oeq double %63, 0.000000e+00
  br i1 %64, label %65, label %85

65:                                               ; preds = %36
  %66 = load i32, i32* %3, align 4
  %67 = sext i32 %66 to i64
  %68 = getelementptr inbounds [100 x double], [100 x double]* %5, i64 0, i64 %67
  %69 = load double, double* %68, align 8
  %70 = fneg double %69
  %71 = load i32, i32* %3, align 4
  %72 = sext i32 %71 to i64
  %73 = getelementptr inbounds [100 x double], [100 x double]* %4, i64 0, i64 %72
  %74 = load double, double* %73, align 8
  %75 = fdiv double %70, %74
  %76 = fdiv double %75, 2.000000e+00
  %77 = load i32, i32* %3, align 4
  %78 = sext i32 %77 to i64
  %79 = getelementptr inbounds [100 x double], [100 x double]* %7, i64 0, i64 %78
  store double %76, double* %79, align 8
  %80 = load i32, i32* %3, align 4
  %81 = sext i32 %80 to i64
  %82 = getelementptr inbounds [100 x double], [100 x double]* %7, i64 0, i64 %81
  %83 = load double, double* %82, align 8
  %84 = call i32 (i8*, ...) @printf(i8* getelementptr inbounds ([13 x i8], [13 x i8]* @.str.2, i64 0, i64 0), double %83)
  br label %199

85:                                               ; preds = %36
  %86 = load i32, i32* %3, align 4
  %87 = sext i32 %86 to i64
  %88 = getelementptr inbounds [100 x double], [100 x double]* %11, i64 0, i64 %87
  %89 = load double, double* %88, align 8
  %90 = fcmp olt double %89, 0.000000e+00
  br i1 %90, label %91, label %148

91:                                               ; preds = %85
  %92 = load i32, i32* %3, align 4
  %93 = sext i32 %92 to i64
  %94 = getelementptr inbounds [100 x double], [100 x double]* %11, i64 0, i64 %93
  %95 = load double, double* %94, align 8
  %96 = fsub double 0.000000e+00, %95
  %97 = call double @sqrt(double %96) #3
  %98 = fdiv double %97, 2.000000e+00
  %99 = load i32, i32* %3, align 4
  %100 = sext i32 %99 to i64
  %101 = getelementptr inbounds [100 x double], [100 x double]* %4, i64 0, i64 %100
  %102 = load double, double* %101, align 8
  %103 = fdiv double %98, %102
  %104 = load i32, i32* %3, align 4
  %105 = sext i32 %104 to i64
  %106 = getelementptr inbounds [100 x double], [100 x double]* %10, i64 0, i64 %105
  store double %103, double* %106, align 8
  %107 = load i32, i32* %3, align 4
  %108 = sext i32 %107 to i64
  %109 = getelementptr inbounds [100 x double], [100 x double]* %5, i64 0, i64 %108
  %110 = load double, double* %109, align 8
  %111 = fneg double %110
  %112 = load i32, i32* %3, align 4
  %113 = sext i32 %112 to i64
  %114 = getelementptr inbounds [100 x double], [100 x double]* %4, i64 0, i64 %113
  %115 = load double, double* %114, align 8
  %116 = fdiv double %111, %115
  %117 = fdiv double %116, 2.000000e+00
  %118 = load i32, i32* %3, align 4
  %119 = sext i32 %118 to i64
  %120 = getelementptr inbounds [100 x double], [100 x double]* %9, i64 0, i64 %119
  store double %117, double* %120, align 8
  %121 = load i32, i32* %3, align 4
  %122 = sext i32 %121 to i64
  %123 = getelementptr inbounds [100 x double], [100 x double]* %9, i64 0, i64 %122
  %124 = load double, double* %123, align 8
  %125 = fcmp oeq double %124, 0.000000e+00
  br i1 %125, label %126, label %130

126:                                              ; preds = %91
  %127 = load i32, i32* %3, align 4
  %128 = sext i32 %127 to i64
  %129 = getelementptr inbounds [100 x double], [100 x double]* %9, i64 0, i64 %128
  store double 0.000000e+00, double* %129, align 8
  br label %130

130:                                              ; preds = %126, %91
  %131 = load i32, i32* %3, align 4
  %132 = sext i32 %131 to i64
  %133 = getelementptr inbounds [100 x double], [100 x double]* %9, i64 0, i64 %132
  %134 = load double, double* %133, align 8
  %135 = load i32, i32* %3, align 4
  %136 = sext i32 %135 to i64
  %137 = getelementptr inbounds [100 x double], [100 x double]* %10, i64 0, i64 %136
  %138 = load double, double* %137, align 8
  %139 = load i32, i32* %3, align 4
  %140 = sext i32 %139 to i64
  %141 = getelementptr inbounds [100 x double], [100 x double]* %9, i64 0, i64 %140
  %142 = load double, double* %141, align 8
  %143 = load i32, i32* %3, align 4
  %144 = sext i32 %143 to i64
  %145 = getelementptr inbounds [100 x double], [100 x double]* %10, i64 0, i64 %144
  %146 = load double, double* %145, align 8
  %147 = call i32 (i8*, ...) @printf(i8* getelementptr inbounds ([33 x i8], [33 x i8]* @.str.3, i64 0, i64 0), double %134, double %138, double %142, double %146)
  br label %198

148:                                              ; preds = %85
  %149 = load i32, i32* %3, align 4
  %150 = sext i32 %149 to i64
  %151 = getelementptr inbounds [100 x double], [100 x double]* %5, i64 0, i64 %150
  %152 = load double, double* %151, align 8
  %153 = fneg double %152
  %154 = load i32, i32* %3, align 4
  %155 = sext i32 %154 to i64
  %156 = getelementptr inbounds [100 x double], [100 x double]* %11, i64 0, i64 %155
  %157 = load double, double* %156, align 8
  %158 = call double @sqrt(double %157) #3
  %159 = fadd double %153, %158
  %160 = fdiv double %159, 2.000000e+00
  %161 = load i32, i32* %3, align 4
  %162 = sext i32 %161 to i64
  %163 = getelementptr inbounds [100 x double], [100 x double]* %4, i64 0, i64 %162
  %164 = load double, double* %163, align 8
  %165 = fdiv double %160, %164
  %166 = load i32, i32* %3, align 4
  %167 = sext i32 %166 to i64
  %168 = getelementptr inbounds [100 x double], [100 x double]* %7, i64 0, i64 %167
  store double %165, double* %168, align 8
  %169 = load i32, i32* %3, align 4
  %170 = sext i32 %169 to i64
  %171 = getelementptr inbounds [100 x double], [100 x double]* %5, i64 0, i64 %170
  %172 = load double, double* %171, align 8
  %173 = fneg double %172
  %174 = load i32, i32* %3, align 4
  %175 = sext i32 %174 to i64
  %176 = getelementptr inbounds [100 x double], [100 x double]* %11, i64 0, i64 %175
  %177 = load double, double* %176, align 8
  %178 = call double @sqrt(double %177) #3
  %179 = fsub double %173, %178
  %180 = fdiv double %179, 2.000000e+00
  %181 = load i32, i32* %3, align 4
  %182 = sext i32 %181 to i64
  %183 = getelementptr inbounds [100 x double], [100 x double]* %4, i64 0, i64 %182
  %184 = load double, double* %183, align 8
  %185 = fdiv double %180, %184
  %186 = load i32, i32* %3, align 4
  %187 = sext i32 %186 to i64
  %188 = getelementptr inbounds [100 x double], [100 x double]* %8, i64 0, i64 %187
  store double %185, double* %188, align 8
  %189 = load i32, i32* %3, align 4
  %190 = sext i32 %189 to i64
  %191 = getelementptr inbounds [100 x double], [100 x double]* %7, i64 0, i64 %190
  %192 = load double, double* %191, align 8
  %193 = load i32, i32* %3, align 4
  %194 = sext i32 %193 to i64
  %195 = getelementptr inbounds [100 x double], [100 x double]* %8, i64 0, i64 %194
  %196 = load double, double* %195, align 8
  %197 = call i32 (i8*, ...) @printf(i8* getelementptr inbounds ([19 x i8], [19 x i8]* @.str.4, i64 0, i64 0), double %192, double %196)
  br label %198

198:                                              ; preds = %148, %130
  br label %199

199:                                              ; preds = %198, %65
  br label %200

200:                                              ; preds = %199
  %201 = load i32, i32* %3, align 4
  %202 = add nsw i32 %201, 1
  store i32 %202, i32* %3, align 4
  br label %32

203:                                              ; preds = %32
  %204 = load i32, i32* %1, align 4
  ret i32 %204
}

declare dso_local i32 @__isoc99_scanf(i8*, ...) #1

declare dso_local i32 @printf(i8*, ...) #1

; Function Attrs: nounwind
declare dso_local double @sqrt(double) #2


!llvm.module.flags = !{!0}
!llvm.ident = !{!1}

!0 = !{i32 1, !"wchar_size", i32 4}
!1 = !{!"clang version 10.0.0-4ubuntu1 "}
